(dp0
S'HUMMER'
p1
S'HUMMER'
p2
sS'HAULMARK'
p3
S'HAULMARK'
p4
sS'LAFORZA'
p5
g5
sS'SPTN'
p6
S'SPARTAN'
p7
sS'GENERAL MOTORS'
p8
S'GENERAL MOTORS'
p9
sS'MERCEDES BENZ'
p10
g10
sS'INTERNATIONAL'
p11
g11
sS'HYOSUNG'
p12
S'HYOSUNG'
p13
sS'LANDROVER'
p14
S'LAND ROVER'
p15
sS'DODGE'
p16
S'DODGE'
p17
sS'BUELL'
p18
g18
sS'SCION'
p19
S'SCION'
p20
sS'WRKH'
p21
S'WORKHORSE'
p22
sS'JAYCO'
p23
S'JAYCO'
p24
sS'DERB'
p25
S'DERBI'
p26
sS'HONDA'
p27
S'HONDA'
p28
sS'HUSQVARNA'
p29
g29
sS'PEUGEOT'
p30
S'PEUGEOT'
p31
sS'LADA'
p32
S'LADA'
p33
sS'MAYB'
p34
S'MAYBACH'
p35
sS'GENESIS TRAILERS'
p36
S'GENESIS TRAILERS'
p37
sS'PORSCHE'
p38
S'PORSCHE'
p39
sS'APRI'
p40
S'APRILIA'
p41
sS'APRILIA'
p42
g42
sS'GM'
p43
S'GENERAL MOTORS'
p44
sS'VOLVO'
p45
S'VOLVO'
p46
sS'MAYBACH'
p47
S'MAYBACH'
p48
sS'STLG'
p49
S'STERLING'
p50
sS'MASERATI'
p51
g51
sS'ICCO'
p52
S'ICCO'
p53
sS'UTILIMASTER'
p54
g54
sS'ROKETA'
p55
S'ROKETA'
p56
sS'KIA'
p57
S'KIA'
p58
sS'NISSAN'
p59
S'NISSAN'
p60
sS'GLASTRON'
p61
S'GLASTRON'
p62
sS'FERRARI'
p63
S'FERRARI'
p64
sS'LAND ROVER'
p65
S'LAND ROVER'
p66
sS'AMERICAN HAULER'
p67
S'AMERICAN HAULER'
p68
sS'FIAT'
p69
S'FIAT'
p70
sS'EAGLE'
p71
S'EAGLE'
p72
sS'DAIH'
p73
S'DAIHATSU'
p74
sS'HUB'
p75
S'HUSABERG'
p76
sS'ASUNA'
p77
g77
sS'JEEP'
p78
S'JEEP'
p79
sS'AMC'
p80
S'AMC'
p81
sS'FLYBO'
p82
S'JINAN FLYBO'
p83
sS'PLYMOUTH'
p84
S'PLYMOUTH'
p85
sS'BMW'
p86
S'BMW'
p87
sS'CADILLAC'
p88
S'CADILLAC'
p89
sS'LNCI'
p90
S'LANCIA'
p91
sS'GEO'
p92
S'GEO'
p93
sS'SUZUKI'
p94
S'SUZUKI'
p95
sS'GEM'
p96
S'GLOBAL-ELECTRIC'
p97
sS'ALFA ROMEO'
p98
S'ALFA ROMEO'
p99
sS'ROYAL CARGO'
p100
S'ROYAL CARGO'
p101
sS'LAMBORGHINI'
p102
S'LAMBORGHINI'
p103
sS'OLDSMOBILE'
p104
S'OLDSMOBILE'
p105
sS'RENAULT'
p106
S'RENAULT'
p107
sS'CHEVROLET'
p108
S'CHEVROLET'
p109
sS'VOLKSWAGEN'
p110
S'VOLKSWAGEN'
p111
sS'CAGI'
p112
S'HUSQVARNA'
p113
sS'JINAN FLYBO'
p114
g114
sS'BOREEM'
p115
S'BOREEM'
p116
sS'WORKHORSE'
p117
g117
sS'ASUN'
p118
S'ASUNA'
p119
sS'FREIGHTLINER'
p120
S'FREIGHTLINER'
p121
sS'DATSUN'
p122
S'DATSUN'
p123
sS'ASTO'
p124
S'ASTON MARTIN'
p125
sS'MOGU'
p126
S'MOTO GUZZI'
p127
sS'LFZA'
p128
S'LAFORZA'
p129
sS'SSI'
p130
S'SAAB'
p131
sS'CHRYSLER'
p132
S'CHRYSLER'
p133
sS'STRG'
p134
S'STERLING'
p135
sS'SAAB'
p136
S'SAAB'
p137
sS'MZ'
p138
g138
sS'VESP'
p139
S'VESPA'
p140
sS'ATK'
p141
S'ATK'
p142
sS'MUZ'
p143
S'MZ'
p144
sS'UTIM'
p145
S'UTILIMASTER'
p146
sS'MNNI'
p147
S'MINI'
p148
sS'MERK'
p149
S'MERCURY'
p150
sS'MERCEDES-BENZ'
p151
S'MERCEDES BENZ'
p152
sS'SATURN'
p153
S'SATURN'
p154
sS'AUDI'
p155
S'AUDI'
p156
sS'CARLOTDB'
p157
S'AUTOLIME NAMESPACE'
p158
sS'MASE'
p159
S'MASERATI'
p160
sS'IVECO'
p161
g161
sS'LOTUS'
p162
S'LOTUS'
p163
sS'WINNEBAGO'
p164
g164
sS'HYUNDAI'
p165
S'HYUNDAI'
p166
sS'TVR'
p167
S'TVR'
p168
sS'MAZDA'
p169
S'MAZDA'
p170
sS'DAEW'
p171
S'DAEWOO'
p172
sS'MOTO GUZZI'
p173
g173
sS'HUSABERG'
p174
g174
sS'RENA'
p175
S'RENAULT'
p176
sS'CORRECT CRAFT'
p177
S'CORRECT CRAFT'
p178
sS'LINCOLN'
p179
S'LINCOLN'
p180
sS'ALFA'
p181
S'ALFA ROMEO'
p182
sS'DERBI'
p183
g183
sS'GMC'
p184
S'GMC'
p185
sS'HUSQ'
p186
S'HUSQVARNA'
p187
sS'ASTON MARTIN'
p188
S'ASTON MARTIN'
p189
sS'SUBARU'
p190
S'SUBARU'
p191
sS'SURE-TRAC'
p192
S'SURE_TRAC'
p193
sS'STERLING'
p194
S'STERLING'
p195
sS'TAHOE'
p196
S'TAHOE'
p197
sS'NISSAN-DIESEL-MOTOR'
p198
g198
sS'MITSUBISHI'
p199
S'MITSUBISHI'
p200
sS'TRIUMPH'
p201
S'TRIUMPH'
p202
sS'IVEC'
p203
S'IVECO'
p204
sS'PONTIAC'
p205
S'PONTIAC'
p206
sS'INFI'
p207
S'INFINITI'
p208
sS'GLOBAL-ELECTRIC'
p209
g209
sS'DAIHATSU'
p210
S'DAIHATSU'
p211
sS'INDIAN'
p212
g212
sS'SKODA'
p213
g213
sS'MERCEDES'
p214
S'MERCEDES BENZ'
p215
sS'ROLLS ROYCE'
p216
S'ROLLS ROYCE'
p217
sS'LEXUS'
p218
S'LEXUS'
p219
sS'BUEL'
p220
S'BUELL'
p221
sS'BIG DOG'
p222
g222
sS'MERCURY'
p223
S'MERCURY'
p224
sS'ACURA'
p225
S'ACURA'
p226
sS'JOHN DEERE'
p227
g227
sS'MINI'
p228
S'MINI'
p229
sS'SMART CAR'
p230
g230
sS'SPNR'
p231
S'DODGE'
p232
sS'DUCATI'
p233
g233
sS'AIH'
p234
S'AMERICAN IRONHORSE'
p235
sS'BGDG'
p236
S'BIG DOG'
p237
sS'DUCA'
p238
S'DUCATI'
p239
sS'BENTLEY'
p240
S'BENTLEY'
p241
sS'ISUZU'
p242
S'ISUZU'
p243
sS'DAEWOO'
p244
S'DAEWOO'
p245
sS'JAGUAR'
p246
S'JAGUAR'
p247
sS'POL'
p248
S'POLARIS'
p249
sS'HD'
p250
S'HARLEY-DAVIDSON'
p251
sS'AutoLime Namespace'
p252
g252
sS'WINN'
p253
S'WINNEBAGO'
p254
sS'POLARIS'
p255
g255
sS'HINO'
p256
S'HINO'
p257
sS'VESPA'
p258
g258
sS'SKOD'
p259
S'SKODA'
p260
sS'JOHN DEER'
p261
S'JOHN DEERE'
p262
sS'INTL'
p263
S'INTERNATIONAL'
p264
sS'PEUGOTE'
p265
S'PEUGEOT'
p266
sS'HARLEY-DAVIDSON'
p267
g267
sS'MERCEDES-BEN'
p268
S'MERCEDES BENZ'
p269
sS'FORD'
p270
S'FORD'
p271
sS'KTM'
p272
S'KTM'
p273
sS'NDMC'
p274
S'NISSAN-DIESEL-MOTOR'
p275
sS'INFINITI'
p276
S'INFINITI'
p277
sS'FEATHERLITE'
p278
S'FEATHERLITE'
p279
sS'YUGO'
p280
S'YUGO'
p281
sS'SMART'
p282
S'SMART CAR'
p283
sS'SURE_TRAC'
p284
g284
sS'ZONG'
p285
S'ZONG'
p286
sS'AMERICAN NORTHERN HAULER'
p287
S'AMERICAN NORTHERN HAULER'
p288
sS'LANCIA'
p289
g289
sS'SPARTAN'
p290
g290
sS'YAMAHA'
p291
S'YAMAHA'
p292
sS'TOYOTA'
p293
S'TOYOTA'
p294
sS'LAMO'
p295
S'LAMBORGHINI'
p296
sS'AMERICAN IRONHORSE'
p297
g297
sS'ROLLS-ROYCE'
p298
g217
sS'ROADMASTER'
p299
S'ROADMASTER'
p300
sS'BUICK'
p301
S'BUICK'
p302
sS'INDI'
p303
S'INDIAN'
p304
sS'KAWASAKI'
p305
S'KAWASAKI'
p306
s.